target datalayout = "e-m:e-p270:32:32-p271:32:32-p272:64:64-i64:64-i128:128-f80:128-n8:16:32:64-S128"
target triple = "x86_64-pc-linux-gnu"

%struct.IDAMemRec = type { ptr, double, ptr, ptr, i32, double, double, ptr, i32, i32, ptr, ptr, i32, i32, [6 x ptr], [6 x double], [6 x double], [6 x double], [6 x double], [6 x double], ptr, ptr, ptr, ptr, ptr, ptr, ptr, ptr, ptr, ptr, ptr, ptr, ptr, ptr, ptr, ptr, ptr, double, ptr, ptr, i32, i32, i32, i32, i32, i32, i32, i32, double, double, double, i32, double, i32, i32, i32, i32, i32, double, double, double, double, double, double, double, double, double, double, double, double, double, double, double, double, i32, i32, i32, i32, i64, double, double, double, double, double, double, double, double, double, i64, i64, i64, i64, i64, i64, i64, i64, i64, i64, i64, double, i32, i32, i32, i32, i32, ptr, i32, ptr, ptr, ptr, ptr, ptr, ptr, ptr, double, i32, ptr, i32, ptr, ptr, double, double, double, ptr, ptr, ptr, double, double, i32, i32, i64, ptr, i32, [6 x double], [5 x double], [6 x ptr], [6 x ptr] }
%struct.IDALsMemRec = type { i32, i32, i32, ptr, ptr, ptr, ptr, ptr, ptr, ptr, ptr, ptr, ptr, i32, double, double, double, i64, i64, i64, i64, i64, i64, i64, i64, i64, i64, i64, i64, i64, i64, double, i32, ptr, ptr, ptr, ptr, i32, ptr, ptr, ptr, ptr }

@.str = private unnamed_addr constant [112 x i8] c"generated/home/dtcxzyw/WorkSpace/Projects/compilers/llvm-opt-benchmark/bench/sundials/sundials/src/ida/ida_ls.c\00", align 1
@.str.30 = private unnamed_addr constant [30 x i8] c"Linear solver memory is NULL.\00", align 1
@__func__.idaLsPerf = private unnamed_addr constant [10 x i8] c"idaLsPerf\00", align 1
@.str.39 = private unnamed_addr constant [102 x i8] c"Warning: at t = %lg, poor iterative algorithm performance. Nonlinear convergence failure rate is %le.\00", align 1
@.str.40 = private unnamed_addr constant [99 x i8] c"Warning: at t = %lg, poor iterative algorithm performance. Linear convergence failure rate is %le.\00", align 1

; Function Attrs: nounwind uwtable
define i32 @idaLsPerf(ptr noundef %0, i32 noundef %1) #0 {
  %3 = alloca i32, align 4
  %4 = alloca ptr, align 8
  %5 = alloca i32, align 4
  %6 = alloca ptr, align 8
  %7 = alloca double, align 8
  %8 = alloca double, align 8
  %9 = alloca i64, align 8
  %10 = alloca i64, align 8
  %11 = alloca i32, align 4
  %12 = alloca i32, align 4
  %13 = alloca i32, align 4
  store ptr %0, ptr %4, align 8, !tbaa !11
  store i32 %1, ptr %5, align 4, !tbaa !20
  call void @llvm.lifetime.start.p0(i64 8, ptr %6) #7
  call void @llvm.lifetime.start.p0(i64 8, ptr %7) #7
  call void @llvm.lifetime.start.p0(i64 8, ptr %8) #7
  call void @llvm.lifetime.start.p0(i64 8, ptr %9) #7
  call void @llvm.lifetime.start.p0(i64 8, ptr %10) #7
  call void @llvm.lifetime.start.p0(i64 4, ptr %11) #7
  call void @llvm.lifetime.start.p0(i64 4, ptr %12) #7
  %14 = load ptr, ptr %4, align 8, !tbaa !11
  %15 = getelementptr inbounds nuw %struct.IDAMemRec, ptr %14, i32 0, i32 113
  %16 = load ptr, ptr %15, align 8, !tbaa !75
  %17 = icmp eq ptr %16, null
  br i1 %17, label %18, label %20

18:                                               ; preds = %2
  %19 = load ptr, ptr %4, align 8, !tbaa !11
  call void (ptr, i32, i32, ptr, ptr, ptr, ...) @IDAProcessError(ptr noundef %19, i32 noundef -2, i32 noundef 1640, ptr noundef @__func__.idaLsPerf, ptr noundef @.str, ptr noundef @.str.30)
  store i32 -2, ptr %3, align 4
  store i32 1, ptr %13, align 4
  br label %134

20:                                               ; preds = %2
  %21 = load ptr, ptr %4, align 8, !tbaa !11
  %22 = getelementptr inbounds nuw %struct.IDAMemRec, ptr %21, i32 0, i32 113
  %23 = load ptr, ptr %22, align 8, !tbaa !75
  store ptr %23, ptr %6, align 8, !tbaa !45
  %24 = load i32, ptr %5, align 4, !tbaa !20
  %25 = icmp eq i32 %24, 0
  br i1 %25, label %26, label %49

26:                                               ; preds = %20
  %27 = load ptr, ptr %4, align 8, !tbaa !11
  %28 = getelementptr inbounds nuw %struct.IDAMemRec, ptr %27, i32 0, i32 88
  %29 = load i64, ptr %28, align 8, !tbaa !85
  %30 = load ptr, ptr %6, align 8, !tbaa !45
  %31 = getelementptr inbounds nuw %struct.IDALsMemRec, ptr %30, i32 0, i32 25
  store i64 %29, ptr %31, align 8, !tbaa !100
  %32 = load ptr, ptr %4, align 8, !tbaa !11
  %33 = getelementptr inbounds nuw %struct.IDAMemRec, ptr %32, i32 0, i32 92
  %34 = load i64, ptr %33, align 8, !tbaa !101
  %35 = load ptr, ptr %6, align 8, !tbaa !45
  %36 = getelementptr inbounds nuw %struct.IDALsMemRec, ptr %35, i32 0, i32 26
  store i64 %34, ptr %36, align 8, !tbaa !102
  %37 = load ptr, ptr %4, align 8, !tbaa !11
  %38 = getelementptr inbounds nuw %struct.IDAMemRec, ptr %37, i32 0, i32 90
  %39 = load i64, ptr %38, align 8, !tbaa !103
  %40 = load ptr, ptr %6, align 8, !tbaa !45
  %41 = getelementptr inbounds nuw %struct.IDALsMemRec, ptr %40, i32 0, i32 27
  store i64 %39, ptr %41, align 8, !tbaa !104
  %42 = load ptr, ptr %6, align 8, !tbaa !45
  %43 = getelementptr inbounds nuw %struct.IDALsMemRec, ptr %42, i32 0, i32 21
  %44 = load i64, ptr %43, align 8, !tbaa !99
  %45 = load ptr, ptr %6, align 8, !tbaa !45
  %46 = getelementptr inbounds nuw %struct.IDALsMemRec, ptr %45, i32 0, i32 28
  store i64 %44, ptr %46, align 8, !tbaa !105
  %47 = load ptr, ptr %6, align 8, !tbaa !45
  %48 = getelementptr inbounds nuw %struct.IDALsMemRec, ptr %47, i32 0, i32 29
  store i64 0, ptr %48, align 8, !tbaa !106
  store i32 0, ptr %3, align 4
  store i32 1, ptr %13, align 4
  br label %134

49:                                               ; preds = %20
  %50 = load ptr, ptr %4, align 8, !tbaa !11
  %51 = getelementptr inbounds nuw %struct.IDAMemRec, ptr %50, i32 0, i32 88
  %52 = load i64, ptr %51, align 8, !tbaa !85
  %53 = load ptr, ptr %6, align 8, !tbaa !45
  %54 = getelementptr inbounds nuw %struct.IDALsMemRec, ptr %53, i32 0, i32 25
  %55 = load i64, ptr %54, align 8, !tbaa !100
  %56 = sub nsw i64 %52, %55
  store i64 %56, ptr %9, align 8, !tbaa !91
  %57 = load ptr, ptr %4, align 8, !tbaa !11
  %58 = getelementptr inbounds nuw %struct.IDAMemRec, ptr %57, i32 0, i32 92
  %59 = load i64, ptr %58, align 8, !tbaa !101
  %60 = load ptr, ptr %6, align 8, !tbaa !45
  %61 = getelementptr inbounds nuw %struct.IDALsMemRec, ptr %60, i32 0, i32 26
  %62 = load i64, ptr %61, align 8, !tbaa !102
  %63 = sub nsw i64 %59, %62
  store i64 %63, ptr %10, align 8, !tbaa !91
  %64 = load i64, ptr %9, align 8, !tbaa !91
  %65 = icmp eq i64 %64, 0
  br i1 %65, label %69, label %66

66:                                               ; preds = %49
  %67 = load i64, ptr %10, align 8, !tbaa !91
  %68 = icmp eq i64 %67, 0
  br i1 %68, label %69, label %70

69:                                               ; preds = %66, %49
  store i32 0, ptr %3, align 4
  store i32 1, ptr %13, align 4
  br label %134

70:                                               ; preds = %66
  %71 = load ptr, ptr %4, align 8, !tbaa !11
  %72 = getelementptr inbounds nuw %struct.IDAMemRec, ptr %71, i32 0, i32 90
  %73 = load i64, ptr %72, align 8, !tbaa !103
  %74 = load ptr, ptr %6, align 8, !tbaa !45
  %75 = getelementptr inbounds nuw %struct.IDALsMemRec, ptr %74, i32 0, i32 27
  %76 = load i64, ptr %75, align 8, !tbaa !104
  %77 = sub nsw i64 %73, %76
  %78 = sitofp i64 %77 to double
  %79 = load i64, ptr %9, align 8, !tbaa !91
  %80 = sitofp i64 %79 to double
  %81 = fdiv double %78, %80
  store double %81, ptr %7, align 8, !tbaa !92
  %82 = load ptr, ptr %6, align 8, !tbaa !45
  %83 = getelementptr inbounds nuw %struct.IDALsMemRec, ptr %82, i32 0, i32 21
  %84 = load i64, ptr %83, align 8, !tbaa !99
  %85 = load ptr, ptr %6, align 8, !tbaa !45
  %86 = getelementptr inbounds nuw %struct.IDALsMemRec, ptr %85, i32 0, i32 28
  %87 = load i64, ptr %86, align 8, !tbaa !105
  %88 = sub nsw i64 %84, %87
  %89 = sitofp i64 %88 to double
  %90 = load i64, ptr %10, align 8, !tbaa !91
  %91 = sitofp i64 %90 to double
  %92 = fdiv double %89, %91
  store double %92, ptr %8, align 8, !tbaa !92
  %93 = load double, ptr %7, align 8, !tbaa !92
  %94 = fcmp ogt double %93, 9.000000e-01
  %95 = zext i1 %94 to i32
  store i32 %95, ptr %11, align 4, !tbaa !20
  %96 = load double, ptr %8, align 8, !tbaa !92
  %97 = fcmp ogt double %96, 9.000000e-01
  %98 = zext i1 %97 to i32
  store i32 %98, ptr %12, align 4, !tbaa !20
  %99 = load i32, ptr %11, align 4, !tbaa !20
  %100 = icmp ne i32 %99, 0
  br i1 %100, label %105, label %101

101:                                              ; preds = %70
  %102 = load i32, ptr %12, align 4, !tbaa !20
  %103 = icmp ne i32 %102, 0
  br i1 %103, label %105, label %104

104:                                              ; preds = %101
  store i32 0, ptr %3, align 4
  store i32 1, ptr %13, align 4
  br label %134

105:                                              ; preds = %101, %70
  %106 = load ptr, ptr %6, align 8, !tbaa !45
  %107 = getelementptr inbounds nuw %struct.IDALsMemRec, ptr %106, i32 0, i32 29
  %108 = load i64, ptr %107, align 8, !tbaa !106
  %109 = add nsw i64 %108, 1
  store i64 %109, ptr %107, align 8, !tbaa !106
  %110 = load ptr, ptr %6, align 8, !tbaa !45
  %111 = getelementptr inbounds nuw %struct.IDALsMemRec, ptr %110, i32 0, i32 29
  %112 = load i64, ptr %111, align 8, !tbaa !106
  %113 = icmp sgt i64 %112, 10
  br i1 %113, label %114, label %115

114:                                              ; preds = %105
  store i32 1, ptr %3, align 4
  store i32 1, ptr %13, align 4
  br label %134

115:                                              ; preds = %105
  %116 = load i32, ptr %11, align 4, !tbaa !20
  %117 = icmp ne i32 %116, 0
  br i1 %117, label %118, label %124

118:                                              ; preds = %115
  %119 = load ptr, ptr %4, align 8, !tbaa !11
  %120 = load ptr, ptr %4, align 8, !tbaa !11
  %121 = getelementptr inbounds nuw %struct.IDAMemRec, ptr %120, i32 0, i32 63
  %122 = load double, ptr %121, align 8, !tbaa !87
  %123 = load double, ptr %7, align 8, !tbaa !92
  call void (ptr, i32, i32, ptr, ptr, ptr, ...) @IDAProcessError(ptr noundef %119, i32 noundef 99, i32 noundef 1679, ptr noundef @__func__.idaLsPerf, ptr noundef @.str, ptr noundef @.str.39, double noundef %122, double noundef %123)
  br label %124

124:                                              ; preds = %118, %115
  %125 = load i32, ptr %12, align 4, !tbaa !20
  %126 = icmp ne i32 %125, 0
  br i1 %126, label %127, label %133

127:                                              ; preds = %124
  %128 = load ptr, ptr %4, align 8, !tbaa !11
  %129 = load ptr, ptr %4, align 8, !tbaa !11
  %130 = getelementptr inbounds nuw %struct.IDAMemRec, ptr %129, i32 0, i32 63
  %131 = load double, ptr %130, align 8, !tbaa !87
  %132 = load double, ptr %8, align 8, !tbaa !92
  call void (ptr, i32, i32, ptr, ptr, ptr, ...) @IDAProcessError(ptr noundef %128, i32 noundef 99, i32 noundef 1684, ptr noundef @__func__.idaLsPerf, ptr noundef @.str, ptr noundef @.str.40, double noundef %131, double noundef %132)
  br label %133

133:                                              ; preds = %127, %124
  store i32 0, ptr %3, align 4
  store i32 1, ptr %13, align 4
  br label %134

134:                                              ; preds = %133, %114, %104, %69, %26, %18
  call void @llvm.lifetime.end.p0(i64 4, ptr %12) #7
  call void @llvm.lifetime.end.p0(i64 4, ptr %11) #7
  call void @llvm.lifetime.end.p0(i64 8, ptr %10) #7
  call void @llvm.lifetime.end.p0(i64 8, ptr %9) #7
  call void @llvm.lifetime.end.p0(i64 8, ptr %8) #7
  call void @llvm.lifetime.end.p0(i64 8, ptr %7) #7
  call void @llvm.lifetime.end.p0(i64 8, ptr %6) #7
  %135 = load i32, ptr %3, align 4
  ret i32 %135
}