; Function Attrs: nounwind uwtable
define range(i32 -2, 2) i32 @idaLsPerf(ptr noundef %0, i32 noundef %1) #0 {
  %3 = getelementptr inbounds nuw i8, ptr %0, i64 1048
  %4 = load ptr, ptr %3, align 8, !tbaa !65
  %5 = icmp eq ptr %4, null
  br i1 %5, label %6, label %7

6:                                                ; preds = %2
  tail call void (ptr, i32, i32, ptr, ptr, ptr, ...) @IDAProcessError(ptr noundef nonnull %0, i32 noundef -2, i32 noundef 1640, ptr noundef nonnull @__func__.idaLsPerf, ptr noundef nonnull @.str, ptr noundef nonnull @.str.30) #13
  br label %63

7:                                                ; preds = %2
  %8 = icmp eq i32 %1, 0
  %9 = getelementptr inbounds nuw i8, ptr %0, i64 864
  %10 = load i64, ptr %9, align 8, !tbaa !75
  %11 = getelementptr inbounds nuw i8, ptr %4, i64 192
  %12 = getelementptr inbounds nuw i8, ptr %0, i64 896
  %13 = getelementptr inbounds nuw i8, ptr %4, i64 200
  br i1 %8, label %14, label %23

14:                                               ; preds = %7
  store i64 %10, ptr %11, align 8, !tbaa !88
  %15 = load i64, ptr %12, align 8, !tbaa !89
  store i64 %15, ptr %13, align 8, !tbaa !90
  %16 = getelementptr inbounds nuw i8, ptr %0, i64 880
  %17 = load i64, ptr %16, align 8, !tbaa !91
  %18 = getelementptr inbounds nuw i8, ptr %4, i64 208
  store i64 %17, ptr %18, align 8, !tbaa !92
  %19 = getelementptr inbounds nuw i8, ptr %4, i64 160
  %20 = load i64, ptr %19, align 8, !tbaa !86
  %21 = getelementptr inbounds nuw i8, ptr %4, i64 216
  store i64 %20, ptr %21, align 8, !tbaa !93
  %22 = getelementptr inbounds nuw i8, ptr %4, i64 224
  store i64 0, ptr %22, align 8, !tbaa !94
  br label %63

23:                                               ; preds = %7
  %24 = load i64, ptr %11, align 8, !tbaa !88
  %25 = load i64, ptr %12, align 8, !tbaa !89
  %26 = load i64, ptr %13, align 8, !tbaa !90
  %27 = icmp eq i64 %10, %24
  %28 = icmp eq i64 %25, %26
  %or.cond = select i1 %27, i1 true, i1 %28
  br i1 %or.cond, label %63, label %29

29:                                               ; preds = %23
  %30 = sub nsw i64 %25, %26
  %31 = sub nsw i64 %10, %24
  %32 = getelementptr inbounds nuw i8, ptr %0, i64 880
  %33 = load i64, ptr %32, align 8, !tbaa !91
  %34 = getelementptr inbounds nuw i8, ptr %4, i64 208
  %35 = load i64, ptr %34, align 8, !tbaa !92
  %36 = sub nsw i64 %33, %35
  %37 = sitofp i64 %36 to double
  %38 = sitofp i64 %31 to double
  %39 = fdiv double %37, %38
  %40 = getelementptr inbounds nuw i8, ptr %4, i64 160
  %41 = load i64, ptr %40, align 8, !tbaa !86
  %42 = getelementptr inbounds nuw i8, ptr %4, i64 216
  %43 = load i64, ptr %42, align 8, !tbaa !93
  %44 = sub nsw i64 %41, %43
  %45 = sitofp i64 %44 to double
  %46 = sitofp i64 %30 to double
  %47 = fdiv double %45, %46
  %48 = fcmp ogt double %39, 9.000000e-01
  %49 = fcmp ogt double %47, 9.000000e-01
  %or.cond3 = select i1 %48, i1 true, i1 %49
  br i1 %or.cond3, label %50, label %63

50:                                               ; preds = %29
  %51 = getelementptr inbounds nuw i8, ptr %4, i64 224
  %52 = load i64, ptr %51, align 8, !tbaa !94
  %53 = add nsw i64 %52, 1
  store i64 %53, ptr %51, align 8, !tbaa !94
  %54 = icmp sgt i64 %52, 9
  br i1 %54, label %63, label %55

55:                                               ; preds = %50
  br i1 %48, label %56, label %59

56:                                               ; preds = %55
  %57 = getelementptr inbounds nuw i8, ptr %0, i64 680
  %58 = load double, ptr %57, align 8, !tbaa !77
  tail call void (ptr, i32, i32, ptr, ptr, ptr, ...) @IDAProcessError(ptr noundef nonnull %0, i32 noundef 99, i32 noundef 1679, ptr noundef nonnull @__func__.idaLsPerf, ptr noundef nonnull @.str, ptr noundef nonnull @.str.39, double noundef %58, double noundef %39) #13
  br label %59

59:                                               ; preds = %56, %55
  br i1 %49, label %60, label %63

60:                                               ; preds = %59
  %61 = getelementptr inbounds nuw i8, ptr %0, i64 680
  %62 = load double, ptr %61, align 8, !tbaa !77
  tail call void (ptr, i32, i32, ptr, ptr, ptr, ...) @IDAProcessError(ptr noundef nonnull %0, i32 noundef 99, i32 noundef 1684, ptr noundef nonnull @__func__.idaLsPerf, ptr noundef nonnull @.str, ptr noundef nonnull @.str.40, double noundef %62, double noundef %47) #13
  br label %63

63:                                               ; preds = %59, %60, %50, %29, %23, %14, %6
  %.0 = phi i32 [ -2, %6 ], [ 0, %14 ], [ 0, %23 ], [ 0, %29 ], [ 1, %50 ], [ 0, %60 ], [ 0, %59 ]
  ret i32 %.0
}